target datalayout = "e-m:e-p270:32:32-p271:32:32-p272:64:64-i64:64-i128:128-f80:128-n8:16:32:64-S128"
target triple = "x86_64-pc-linux-gnu"

%struct.Node = type { i16, i16, i32 }

; Function Attrs: nounwind uwtable
define internal void @get_tree_codes(ptr noundef %0, ptr noundef %1, ptr noundef %2, i32 noundef %3, i32 noundef %4, ptr noundef %5, i32 noundef %6) #0 {
  %8 = alloca ptr, align 8
  %9 = alloca ptr, align 8
  %10 = alloca ptr, align 8
  %11 = alloca i32, align 4
  %12 = alloca i32, align 4
  %13 = alloca ptr, align 8
  %14 = alloca i32, align 4
  %15 = alloca i32, align 4
  store ptr %0, ptr %8, align 8, !tbaa !4
  store ptr %1, ptr %9, align 8, !tbaa !4
  store ptr %2, ptr %10, align 8, !tbaa !39
  store i32 %3, ptr %11, align 4, !tbaa !11
  store i32 %4, ptr %12, align 4, !tbaa !11
  store ptr %5, ptr %13, align 8, !tbaa !15
  store i32 %6, ptr %14, align 4, !tbaa !11
  call void @llvm.lifetime.start.p0(i64 4, ptr %15) #4
  %16 = load ptr, ptr %10, align 8, !tbaa !39
  %17 = load i32, ptr %11, align 4, !tbaa !11
  %18 = sext i32 %17 to i64
  %19 = getelementptr inbounds %struct.Node, ptr %16, i64 %18
  %20 = getelementptr inbounds nuw %struct.Node, ptr %19, i32 0, i32 0
  %21 = load i16, ptr %20, align 4, !tbaa !41
  %22 = sext i16 %21 to i32
  store i32 %22, ptr %15, align 4, !tbaa !11
  %23 = load i32, ptr %15, align 4, !tbaa !11
  %24 = icmp ne i32 %23, -1
  br i1 %24, label %36, label %25

25:                                               ; preds = %7
  %26 = load i32, ptr %14, align 4, !tbaa !11
  %27 = icmp ne i32 %26, 0
  br i1 %27, label %28, label %54

28:                                               ; preds = %25
  %29 = load ptr, ptr %10, align 8, !tbaa !39
  %30 = load i32, ptr %11, align 4, !tbaa !11
  %31 = sext i32 %30 to i64
  %32 = getelementptr inbounds %struct.Node, ptr %29, i64 %31
  %33 = getelementptr inbounds nuw %struct.Node, ptr %32, i32 0, i32 2
  %34 = load i32, ptr %33, align 4, !tbaa !44
  %35 = icmp ne i32 %34, 0
  br i1 %35, label %54, label %36

36:                                               ; preds = %28, %7
  %37 = load i32, ptr %12, align 4, !tbaa !11
  %38 = trunc i32 %37 to i8
  %39 = load ptr, ptr %8, align 8, !tbaa !4
  %40 = load ptr, ptr %13, align 8, !tbaa !15
  %41 = load i32, ptr %40, align 4, !tbaa !11
  %42 = sext i32 %41 to i64
  %43 = getelementptr inbounds i8, ptr %39, i64 %42
  store i8 %38, ptr %43, align 1, !tbaa !19
  %44 = load i32, ptr %15, align 4, !tbaa !11
  %45 = trunc i32 %44 to i8
  %46 = load ptr, ptr %9, align 8, !tbaa !4
  %47 = load ptr, ptr %13, align 8, !tbaa !15
  %48 = load i32, ptr %47, align 4, !tbaa !11
  %49 = sext i32 %48 to i64
  %50 = getelementptr inbounds i8, ptr %46, i64 %49
  store i8 %45, ptr %50, align 1, !tbaa !19
  %51 = load ptr, ptr %13, align 8, !tbaa !15
  %52 = load i32, ptr %51, align 4, !tbaa !11
  %53 = add nsw i32 %52, 1
  store i32 %53, ptr %51, align 4, !tbaa !11
  br label %84

54:                                               ; preds = %28, %25
  %55 = load i32, ptr %12, align 4, !tbaa !11
  %56 = add nsw i32 %55, 1
  store i32 %56, ptr %12, align 4, !tbaa !11
  %57 = load ptr, ptr %8, align 8, !tbaa !4
  %58 = load ptr, ptr %9, align 8, !tbaa !4
  %59 = load ptr, ptr %10, align 8, !tbaa !39
  %60 = load ptr, ptr %10, align 8, !tbaa !39
  %61 = load i32, ptr %11, align 4, !tbaa !11
  %62 = sext i32 %61 to i64
  %63 = getelementptr inbounds %struct.Node, ptr %60, i64 %62
  %64 = getelementptr inbounds nuw %struct.Node, ptr %63, i32 0, i32 1
  %65 = load i16, ptr %64, align 2, !tbaa !43
  %66 = sext i16 %65 to i32
  %67 = load i32, ptr %12, align 4, !tbaa !11
  %68 = load ptr, ptr %13, align 8, !tbaa !15
  %69 = load i32, ptr %14, align 4, !tbaa !11
  call void @get_tree_codes(ptr noundef %57, ptr noundef %58, ptr noundef %59, i32 noundef %66, i32 noundef %67, ptr noundef %68, i32 noundef %69)
  %70 = load ptr, ptr %8, align 8, !tbaa !4
  %71 = load ptr, ptr %9, align 8, !tbaa !4
  %72 = load ptr, ptr %10, align 8, !tbaa !39
  %73 = load ptr, ptr %10, align 8, !tbaa !39
  %74 = load i32, ptr %11, align 4, !tbaa !11
  %75 = sext i32 %74 to i64
  %76 = getelementptr inbounds %struct.Node, ptr %73, i64 %75
  %77 = getelementptr inbounds nuw %struct.Node, ptr %76, i32 0, i32 1
  %78 = load i16, ptr %77, align 2, !tbaa !43
  %79 = sext i16 %78 to i32
  %80 = add nsw i32 %79, 1
  %81 = load i32, ptr %12, align 4, !tbaa !11
  %82 = load ptr, ptr %13, align 8, !tbaa !15
  %83 = load i32, ptr %14, align 4, !tbaa !11
  call void @get_tree_codes(ptr noundef %70, ptr noundef %71, ptr noundef %72, i32 noundef %80, i32 noundef %81, ptr noundef %82, i32 noundef %83)
  br label %84

84:                                               ; preds = %54, %36
  call void @llvm.lifetime.end.p0(i64 4, ptr %15) #4
  ret void
}