; Function Attrs: nofree nosync nounwind memory(argmem: readwrite) uwtable
define internal fastcc void @get_tree_codes(ptr noundef nonnull writeonly captures(none) %0, ptr noundef nonnull writeonly captures(none) %1, ptr noundef readonly captures(none) %2, i32 noundef range(i32 -2147483648, 2147483646) %3, i32 noundef %4, ptr noundef nonnull captures(none) %5, i32 noundef range(i32 0, 2) %6) unnamed_addr #4 {
  %8 = sext i32 %3 to i64
  %9 = getelementptr inbounds %struct.Node, ptr %2, i64 %8
  %10 = load i16, ptr %9, align 4, !tbaa !24
  %.not38 = icmp eq i16 %10, -1
  br i1 %.not38, label %.lr.ph.preheader, label %._crit_edge

.lr.ph.preheader:                                 ; preds = %7
  %invariant.gep = getelementptr i8, ptr %2, i64 8
  br label %.lr.ph

.lr.ph:                                           ; preds = %.lr.ph.preheader, %tailrecurse.backedge
  %11 = phi ptr [ %gep, %tailrecurse.backedge ], [ %9, %.lr.ph.preheader ]
  %.tr3740 = phi i32 [ %.sink45, %tailrecurse.backedge ], [ %6, %.lr.ph.preheader ]
  %.tr3539 = phi i32 [ %12, %tailrecurse.backedge ], [ %4, %.lr.ph.preheader ]
  %.not30 = icmp eq i32 %.tr3740, 0
  br i1 %.not30, label %tailrecurse.backedge, label %17

tailrecurse.backedge:                             ; preds = %.lr.ph, %17
  %.sink45 = phi i32 [ 1, %17 ], [ 0, %.lr.ph ]
  %12 = add nsw i32 %.tr3539, 1
  %13 = getelementptr inbounds nuw i8, ptr %11, i64 2
  %14 = load i16, ptr %13, align 2, !tbaa !26
  %15 = sext i16 %14 to i32
  tail call fastcc void @get_tree_codes(ptr noundef %0, ptr noundef %1, ptr noundef nonnull %2, i32 noundef %15, i32 noundef %12, ptr noundef %5, i32 noundef %.sink45)
  %.tr34.be.in.in = load i16, ptr %13, align 2, !tbaa !26
  %.tr34.be.in = sext i16 %.tr34.be.in.in to i64
  %gep = getelementptr %struct.Node, ptr %invariant.gep, i64 %.tr34.be.in
  %16 = load i16, ptr %gep, align 4, !tbaa !24
  %.not = icmp eq i16 %16, -1
  br i1 %.not, label %.lr.ph, label %._crit_edge

17:                                               ; preds = %.lr.ph
  %18 = getelementptr inbounds nuw i8, ptr %11, i64 4
  %19 = load i32, ptr %18, align 4, !tbaa !27
  %.not31 = icmp eq i32 %19, 0
  br i1 %.not31, label %._crit_edge, label %tailrecurse.backedge

._crit_edge:                                      ; preds = %tailrecurse.backedge, %17, %7
  %.tr35.lcssa = phi i32 [ %4, %7 ], [ %.tr3539, %17 ], [ %12, %tailrecurse.backedge ]
  %.lcssa = phi i16 [ %10, %7 ], [ -1, %17 ], [ %16, %tailrecurse.backedge ]
  %20 = trunc i32 %.tr35.lcssa to i8
  %21 = load i32, ptr %5, align 4, !tbaa !18
  %22 = sext i32 %21 to i64
  %23 = getelementptr inbounds i8, ptr %0, i64 %22
  store i8 %20, ptr %23, align 1, !tbaa !4
  %24 = trunc i16 %.lcssa to i8
  %25 = load i32, ptr %5, align 4, !tbaa !18
  %26 = sext i32 %25 to i64
  %27 = getelementptr inbounds i8, ptr %1, i64 %26
  store i8 %24, ptr %27, align 1, !tbaa !4
  %28 = load i32, ptr %5, align 4, !tbaa !18
  %29 = add nsw i32 %28, 1
  store i32 %29, ptr %5, align 4, !tbaa !18
  ret void
}